; Function Attrs: mustprogress uwtable
define void @_ZN7rocksdb17PosixRandomRWFile5WriteEmRKNS_5SliceERKNS_9IOOptionsEPNS_14IODebugContextE(ptr noalias nocapture writeonly sret(%"class.rocksdb::IOStatus") align 8 %agg.result, ptr noundef nonnull align 8 dereferenceable(44) %this, i64 noundef %offset, ptr nocapture noundef nonnull readonly align 8 dereferenceable(16) %data, ptr nocapture nonnull readnone align 8 %0, ptr nocapture readnone %1) unnamed_addr #0 align 2 personality ptr @__gxx_personality_v0 {
entry:
  %ref.tmp = alloca %"class.std::__cxx11::basic_string", align 8
  %ref.tmp5 = alloca %"class.std::__cxx11::basic_string", align 8
  %size_.i = getelementptr inbounds i8, ptr %data, i64 8
  %2 = load i64, ptr %size_.i, align 8
  %fd_ = getelementptr inbounds i8, ptr %this, i64 40
  %3 = load i32, ptr %fd_, align 8
  %cmp.not.i6 = icmp eq i64 %2, 0
  br i1 %cmp.not.i6, label %if.end, label %while.cond.i.preheader.preheader

while.cond.i.preheader.preheader:                 ; preds = %entry
  %.sroa.speculated.i7 = tail call i64 @llvm.umin.i64(i64 %2, i64 1073741824)
  %4 = load ptr, ptr %data, align 8
  br label %while.cond.i.preheader

while.cond.i.preheader:                           ; preds = %while.cond.i.preheader.preheader, %if.end6.i
  %.sroa.speculated.i11 = phi i64 [ %.sroa.speculated.i, %if.end6.i ], [ %.sroa.speculated.i7, %while.cond.i.preheader.preheader ]
  %offset.addr.0.ph.i10 = phi i64 [ %add.i, %if.end6.i ], [ %offset, %while.cond.i.preheader.preheader ]
  %src.0.ph.i9 = phi ptr [ %add.ptr.i, %if.end6.i ], [ %4, %while.cond.i.preheader.preheader ]
  %left.0.ph.i8 = phi i64 [ %sub.i, %if.end6.i ], [ %2, %while.cond.i.preheader.preheader ]
  br label %while.cond.i

while.cond.i:                                     ; preds = %while.cond.i.preheader, %if.then.i
  %call1.i = tail call i64 @pwrite(i32 noundef %3, ptr noundef %src.0.ph.i9, i64 noundef %.sroa.speculated.i11, i64 noundef %offset.addr.0.ph.i10)
  %cmp2.i = icmp slt i64 %call1.i, 0
  br i1 %cmp2.i, label %if.then.i, label %if.end6.i

if.then.i:                                        ; preds = %while.cond.i
  %call3.i = tail call ptr @__errno_location() #30
  %5 = load i32, ptr %call3.i, align 4
  %cmp4.i = icmp eq i32 %5, 4
  br i1 %cmp4.i, label %while.cond.i, label %if.then, !llvm.loop !152

if.end6.i:                                        ; preds = %while.cond.i
  %sub.i = sub i64 %left.0.ph.i8, %call1.i
  %add.i = add nsw i64 %call1.i, %offset.addr.0.ph.i10
  %add.ptr.i = getelementptr inbounds i8, ptr %src.0.ph.i9, i64 %call1.i
  %cmp.not.i = icmp eq i64 %sub.i, 0
  %.sroa.speculated.i = tail call i64 @llvm.umin.i64(i64 %sub.i, i64 1073741824)
  br i1 %cmp.not.i, label %if.end, label %while.cond.i.preheader, !llvm.loop !152

if.then:                                          ; preds = %if.then.i
  call void @_ZNSt7__cxx119to_stringEm(ptr nonnull sret(%"class.std::__cxx11::basic_string") align 8 %ref.tmp5, i64 noundef %offset)
  %call.i4 = invoke noundef nonnull align 8 dereferenceable(32) ptr @_ZNSt7__cxx1112basic_stringIcSt11char_traitsIcESaIcEE6insertEmPKc(ptr noundef nonnull align 8 dereferenceable(32) %ref.tmp5, i64 noundef 0, ptr noundef nonnull @.str.51)
          to label %invoke.cont unwind label %lpad

invoke.cont:                                      ; preds = %if.then
  call void @_ZNSt7__cxx1112basic_stringIcSt11char_traitsIcESaIcEEC1EOS4_(ptr noundef nonnull align 8 dereferenceable(32) %ref.tmp, ptr noundef nonnull align 8 dereferenceable(32) %call.i4) #25
  %filename_ = getelementptr inbounds i8, ptr %this, i64 8
  %6 = load i32, ptr %call3.i, align 4
  invoke void @_ZN7rocksdb7IOErrorERKNSt7__cxx1112basic_stringIcSt11char_traitsIcESaIcEEES7_i(ptr sret(%"class.rocksdb::IOStatus") align 8 %agg.result, ptr noundef nonnull align 8 dereferenceable(32) %ref.tmp, ptr noundef nonnull align 8 dereferenceable(32) %filename_, i32 noundef %6)
          to label %invoke.cont8 unwind label %lpad7

invoke.cont8:                                     ; preds = %invoke.cont
  call void @_ZNSt7__cxx1112basic_stringIcSt11char_traitsIcESaIcEED1Ev(ptr noundef nonnull align 8 dereferenceable(32) %ref.tmp) #25
  call void @_ZNSt7__cxx1112basic_stringIcSt11char_traitsIcESaIcEED1Ev(ptr noundef nonnull align 8 dereferenceable(32) %ref.tmp5) #25
  br label %return

lpad:                                             ; preds = %if.then
  %7 = landingpad { ptr, i32 }
          cleanup
  br label %ehcleanup

lpad7:                                            ; preds = %invoke.cont
  %8 = landingpad { ptr, i32 }
          cleanup
  call void @_ZNSt7__cxx1112basic_stringIcSt11char_traitsIcESaIcEED1Ev(ptr noundef nonnull align 8 dereferenceable(32) %ref.tmp) #25
  br label %ehcleanup

ehcleanup:                                        ; preds = %lpad7, %lpad
  %.pn = phi { ptr, i32 } [ %8, %lpad7 ], [ %7, %lpad ]
  call void @_ZNSt7__cxx1112basic_stringIcSt11char_traitsIcESaIcEED1Ev(ptr noundef nonnull align 8 dereferenceable(32) %ref.tmp5) #25
  resume { ptr, i32 } %.pn

if.end:                                           ; preds = %if.end6.i, %entry
  store i8 0, ptr %agg.result, align 8, !alias.scope !191
  %subcode_.i.i.i.i = getelementptr inbounds i8, ptr %agg.result, i64 1
  store i8 0, ptr %subcode_.i.i.i.i, align 1, !alias.scope !191
  %sev_.i.i.i.i = getelementptr inbounds i8, ptr %agg.result, i64 2
  %state_.i.i.i.i = getelementptr inbounds i8, ptr %agg.result, i64 8
  store ptr null, ptr %state_.i.i.i.i, align 8, !alias.scope !191
  store i32 0, ptr %sev_.i.i.i.i, align 2, !alias.scope !191
  br label %return

return:                                           ; preds = %if.end, %invoke.cont8
  ret void
}